target datalayout = "e-m:e-p270:32:32-p271:32:32-p272:64:64-i64:64-i128:128-f80:128-n8:16:32:64-S128"
target triple = "x86_64-pc-linux-gnu"

%struct.darktable_t = type { %struct.dt_codepath_t, i32, i32, ptr, ptr, ptr, ptr, ptr, ptr, ptr, ptr, ptr, ptr, ptr, ptr, ptr, ptr, ptr, ptr, ptr, ptr, ptr, ptr, ptr, ptr, ptr, ptr, ptr, ptr, ptr, [64 x %struct.dt_pthread_mutex_t], %struct.dt_pthread_mutex_t, %struct.dt_pthread_mutex_t, %struct.dt_pthread_mutex_t, %struct.dt_pthread_mutex_t, %struct.dt_pthread_mutex_t, ptr, ptr, ptr, ptr, ptr, ptr, ptr, ptr, ptr, ptr, ptr, ptr, ptr, %struct.dt_lua_state_t, ptr, double, ptr, i32, [47 x i32], i32, i32, ptr, ptr, %struct.dt_sys_resources_t, %struct.dt_backthumb_t, %struct.dt_gimp_t }
%struct.dt_codepath_t = type { i8, [3 x i8] }
%struct.dt_pthread_mutex_t = type { %union.pthread_mutex_t }
%union.pthread_mutex_t = type { %struct.__pthread_mutex_s }
%struct.__pthread_mutex_s = type { i32, i32, i32, i32, i32, i16, i16, %struct.__pthread_internal_list }
%struct.__pthread_internal_list = type { ptr, ptr }
%struct.dt_lua_state_t = type { i32 }
%struct.dt_sys_resources_t = type { i64, i64, ptr, ptr, i32 }
%struct.dt_backthumb_t = type { double, double, i32, i32, i32, i32 }
%struct.dt_gimp_t = type { i32, ptr, ptr, i32, i32 }

@darktable = external global %struct.darktable_t, align 8
@.str.30 = private unnamed_addr constant [25 x i8] c"%s/pixmaps/darktable.svg\00", align 1
@.str.31 = private unnamed_addr constant [10 x i8] c"darktable\00", align 1
@.str.32 = private unnamed_addr constant [21 x i8] c"splashscreen-program\00", align 1

; Function Attrs: nounwind uwtable
define internal ptr @_get_program_name() #0 {
  %1 = alloca ptr, align 8
  %2 = alloca ptr, align 8
  %3 = alloca ptr, align 8
  call void @llvm.lifetime.start.p0(i64 8, ptr %1) #8
  store ptr null, ptr %1, align 8, !tbaa !13
  call void @llvm.lifetime.start.p0(i64 8, ptr %2) #8
  %4 = load ptr, ptr getelementptr inbounds nuw (%struct.darktable_t, ptr @darktable, i32 0, i32 37), align 8, !tbaa !60
  %5 = call noalias ptr (ptr, ...) @g_strdup_printf(ptr noundef @.str.30, ptr noundef %4)
  store ptr %5, ptr %2, align 8, !tbaa !15
  call void @llvm.lifetime.start.p0(i64 8, ptr %3) #8
  %6 = load ptr, ptr %2, align 8, !tbaa !15
  %7 = call ptr @gdk_pixbuf_new_from_file_at_size(ptr noundef %6, i32 noundef 480, i32 noundef -1, ptr noundef null)
  store ptr %7, ptr %3, align 8, !tbaa !61
  %8 = load ptr, ptr %2, align 8, !tbaa !15
  call void @g_free(ptr noundef %8)
  %9 = load ptr, ptr %3, align 8, !tbaa !61
  %10 = icmp ne ptr %9, null
  br i1 %10, label %11, label %15

11:                                               ; preds = %0
  %12 = load ptr, ptr %3, align 8, !tbaa !61
  %13 = call ptr @gtk_image_new_from_pixbuf(ptr noundef %12)
  store ptr %13, ptr %1, align 8, !tbaa !13
  %14 = load ptr, ptr %3, align 8, !tbaa !61
  call void @g_object_unref(ptr noundef %14)
  br label %19

15:                                               ; preds = %0
  %16 = call ptr @gtk_label_new(ptr noundef @.str.31)
  %17 = call i64 @gtk_widget_get_type() #9
  %18 = call ptr @g_type_check_instance_cast(ptr noundef %16, i64 noundef %17)
  store ptr %18, ptr %1, align 8, !tbaa !13
  br label %19

19:                                               ; preds = %15, %11
  %20 = load ptr, ptr %1, align 8, !tbaa !13
  call void @gtk_widget_set_name(ptr noundef %20, ptr noundef @.str.32)
  %21 = load ptr, ptr %1, align 8, !tbaa !13
  call void @llvm.lifetime.end.p0(i64 8, ptr %3) #8
  call void @llvm.lifetime.end.p0(i64 8, ptr %2) #8
  call void @llvm.lifetime.end.p0(i64 8, ptr %1) #8
  ret ptr %21
}