; Function Attrs: nounwind uwtable
define internal fastcc noundef ptr @_get_program_name() unnamed_addr #0 {
  %1 = load ptr, ptr getelementptr inbounds nuw (i8, ptr @darktable, i64 3000), align 8, !tbaa !51
  %2 = tail call noalias ptr (ptr, ...) @g_strdup_printf(ptr noundef nonnull @.str.30, ptr noundef %1) #7
  %3 = tail call ptr @gdk_pixbuf_new_from_file_at_size(ptr noundef %2, i32 noundef 480, i32 noundef -1, ptr noundef null) #7
  tail call void @g_free(ptr noundef %2) #7
  %.not = icmp eq ptr %3, null
  br i1 %.not, label %6, label %4

4:                                                ; preds = %0
  %5 = tail call ptr @gtk_image_new_from_pixbuf(ptr noundef nonnull %3) #7
  tail call void @g_object_unref(ptr noundef nonnull %3) #7
  br label %10

6:                                                ; preds = %0
  %7 = tail call ptr @gtk_label_new(ptr noundef nonnull @.str.31) #7
  %8 = tail call i64 @gtk_widget_get_type() #8
  %9 = tail call ptr @g_type_check_instance_cast(ptr noundef %7, i64 noundef %8) #7
  br label %10

10:                                               ; preds = %6, %4
  %.0 = phi ptr [ %5, %4 ], [ %9, %6 ]
  tail call void @gtk_widget_set_name(ptr noundef %.0, ptr noundef nonnull @.str.32) #7
  ret ptr %.0
}